target datalayout = "e-m:e-p270:32:32-p271:32:32-p272:64:64-i64:64-i128:128-f80:128-n8:16:32:64-S128"
target triple = "x86_64-pc-linux-gnu"

%struct.nodelist_t = type { ptr, i64, i64, i64 }

; Function Attrs: inlinehint nounwind uwtable
define internal void @nodelist_noop_(ptr noundef %0) #1 {
  %2 = alloca ptr, align 8
  store ptr %0, ptr %2, align 8, !tbaa !9
  ret void
}

; Function Attrs: inlinehint nounwind uwtable
define internal ptr @nodelist_at(ptr noundef %0, i64 noundef %1) #1 {
  %3 = alloca ptr, align 8
  %4 = alloca i64, align 8
  store ptr %0, ptr %3, align 8, !tbaa !3
  store i64 %1, ptr %4, align 8, !tbaa !7
  %5 = load ptr, ptr %3, align 8, !tbaa !3
  %6 = getelementptr inbounds nuw %struct.nodelist_t, ptr %5, i32 0, i32 0
  %7 = load ptr, ptr %6, align 8, !tbaa !18
  %8 = load ptr, ptr %3, align 8, !tbaa !3
  %9 = getelementptr inbounds nuw %struct.nodelist_t, ptr %8, i32 0, i32 1
  %10 = load i64, ptr %9, align 8, !tbaa !15
  %11 = load i64, ptr %4, align 8, !tbaa !7
  %12 = add i64 %10, %11
  %13 = load ptr, ptr %3, align 8, !tbaa !3
  %14 = getelementptr inbounds nuw %struct.nodelist_t, ptr %13, i32 0, i32 3
  %15 = load i64, ptr %14, align 8, !tbaa !19
  %16 = urem i64 %12, %15
  %17 = getelementptr inbounds nuw ptr, ptr %7, i64 %16
  ret ptr %17
}

; Function Attrs: inlinehint nounwind uwtable
define internal ptr @nodelist_get(ptr noundef %0, i64 noundef %1) #1 {
  %3 = alloca ptr, align 8
  %4 = alloca i64, align 8
  store ptr %0, ptr %3, align 8, !tbaa !3
  store i64 %1, ptr %4, align 8, !tbaa !7
  %5 = load ptr, ptr %3, align 8, !tbaa !3
  %6 = getelementptr inbounds nuw %struct.nodelist_t, ptr %5, i32 0, i32 0
  %7 = load ptr, ptr %6, align 8, !tbaa !18
  %8 = load ptr, ptr %3, align 8, !tbaa !3
  %9 = getelementptr inbounds nuw %struct.nodelist_t, ptr %8, i32 0, i32 1
  %10 = load i64, ptr %9, align 8, !tbaa !15
  %11 = load i64, ptr %4, align 8, !tbaa !7
  %12 = add i64 %10, %11
  %13 = load ptr, ptr %3, align 8, !tbaa !3
  %14 = getelementptr inbounds nuw %struct.nodelist_t, ptr %13, i32 0, i32 3
  %15 = load i64, ptr %14, align 8, !tbaa !19
  %16 = urem i64 %12, %15
  %17 = getelementptr inbounds nuw ptr, ptr %7, i64 %16
  %18 = load ptr, ptr %17, align 8, !tbaa !9
  ret ptr %18
}

; Function Attrs: inlinehint nounwind uwtable
define internal i64 @nodelist_size(ptr noundef %0) #1 {
  %2 = alloca ptr, align 8
  store ptr %0, ptr %2, align 8, !tbaa !3
  %3 = load ptr, ptr %2, align 8, !tbaa !3
  %4 = getelementptr inbounds nuw %struct.nodelist_t, ptr %3, i32 0, i32 2
  %5 = load i64, ptr %4, align 8, !tbaa !23
  ret i64 %5
}

; Function Attrs: inlinehint nounwind uwtable
define internal void @nodelist_remove(ptr noundef %0, ptr noundef %1) #1 {
  %3 = alloca ptr, align 8
  %4 = alloca ptr, align 8
  %5 = alloca i64, align 8
  %6 = alloca i32, align 4
  %7 = alloca ptr, align 8
  %8 = alloca i64, align 8
  %9 = alloca ptr, align 8
  store ptr %0, ptr %3, align 8, !tbaa !3
  store ptr %1, ptr %4, align 8, !tbaa !9
  call void @llvm.lifetime.start.p0(i64 8, ptr %5) #10
  store i64 0, ptr %5, align 8, !tbaa !7
  br label %10

10:                                               ; preds = %59, %2
  %11 = load i64, ptr %5, align 8, !tbaa !7
  %12 = load ptr, ptr %3, align 8, !tbaa !3
  %13 = getelementptr inbounds nuw %struct.nodelist_t, ptr %12, i32 0, i32 2
  %14 = load i64, ptr %13, align 8, !tbaa !23
  %15 = icmp ult i64 %11, %14
  br i1 %15, label %17, label %16

16:                                               ; preds = %10
  store i32 2, ptr %6, align 4
  br label %62

17:                                               ; preds = %10
  call void @llvm.lifetime.start.p0(i64 8, ptr %7) #10
  %18 = load ptr, ptr %3, align 8, !tbaa !3
  %19 = load i64, ptr %5, align 8, !tbaa !7
  %20 = call ptr @nodelist_at(ptr noundef %18, i64 noundef %19)
  store ptr %20, ptr %7, align 8, !tbaa !24
  %21 = load ptr, ptr %7, align 8, !tbaa !24
  %22 = call i32 @memcmp(ptr noundef %21, ptr noundef %4, i64 noundef 8) #12
  %23 = icmp eq i32 %22, 0
  br i1 %23, label %24, label %55

24:                                               ; preds = %17
  %25 = load ptr, ptr %7, align 8, !tbaa !24
  %26 = load ptr, ptr %25, align 8, !tbaa !9
  call void @nodelist_noop_(ptr noundef %26)
  call void @llvm.lifetime.start.p0(i64 8, ptr %8) #10
  %27 = load i64, ptr %5, align 8, !tbaa !7
  %28 = add i64 %27, 1
  store i64 %28, ptr %8, align 8, !tbaa !7
  br label %29

29:                                               ; preds = %44, %24
  %30 = load i64, ptr %8, align 8, !tbaa !7
  %31 = load ptr, ptr %3, align 8, !tbaa !3
  %32 = getelementptr inbounds nuw %struct.nodelist_t, ptr %31, i32 0, i32 2
  %33 = load i64, ptr %32, align 8, !tbaa !23
  %34 = icmp ult i64 %30, %33
  br i1 %34, label %36, label %35

35:                                               ; preds = %29
  store i32 5, ptr %6, align 4
  call void @llvm.lifetime.end.p0(i64 8, ptr %8) #10
  br label %47

36:                                               ; preds = %29
  call void @llvm.lifetime.start.p0(i64 8, ptr %9) #10
  %37 = load ptr, ptr %3, align 8, !tbaa !3
  %38 = load i64, ptr %8, align 8, !tbaa !7
  %39 = call ptr @nodelist_at(ptr noundef %37, i64 noundef %38)
  store ptr %39, ptr %9, align 8, !tbaa !24
  %40 = load ptr, ptr %9, align 8, !tbaa !24
  %41 = load ptr, ptr %40, align 8, !tbaa !9
  %42 = load ptr, ptr %7, align 8, !tbaa !24
  store ptr %41, ptr %42, align 8, !tbaa !9
  %43 = load ptr, ptr %9, align 8, !tbaa !24
  store ptr %43, ptr %7, align 8, !tbaa !24
  call void @llvm.lifetime.end.p0(i64 8, ptr %9) #10
  br label %44

44:                                               ; preds = %36
  %45 = load i64, ptr %8, align 8, !tbaa !7
  %46 = add i64 %45, 1
  store i64 %46, ptr %8, align 8, !tbaa !7
  br label %29, !llvm.loop !27

47:                                               ; preds = %35
  br label %48

48:                                               ; preds = %47
  br label %49

49:                                               ; preds = %48
  br label %50

50:                                               ; preds = %49
  %51 = load ptr, ptr %3, align 8, !tbaa !3
  %52 = getelementptr inbounds nuw %struct.nodelist_t, ptr %51, i32 0, i32 2
  %53 = load i64, ptr %52, align 8, !tbaa !23
  %54 = add i64 %53, -1
  store i64 %54, ptr %52, align 8, !tbaa !23
  store i32 1, ptr %6, align 4
  br label %56

55:                                               ; preds = %17
  store i32 0, ptr %6, align 4
  br label %56

56:                                               ; preds = %55, %50
  call void @llvm.lifetime.end.p0(i64 8, ptr %7) #10
  %57 = load i32, ptr %6, align 4
  switch i32 %57, label %62 [
    i32 0, label %58
  ]

58:                                               ; preds = %56
  br label %59

59:                                               ; preds = %58
  %60 = load i64, ptr %5, align 8, !tbaa !7
  %61 = add i64 %60, 1
  store i64 %61, ptr %5, align 8, !tbaa !7
  br label %10, !llvm.loop !28

62:                                               ; preds = %56, %16
  call void @llvm.lifetime.end.p0(i64 8, ptr %5) #10
  %63 = load i32, ptr %6, align 4
  switch i32 %63, label %65 [
    i32 2, label %64
    i32 1, label %64
  ]

64:                                               ; preds = %62, %62
  ret void

65:                                               ; preds = %62
  unreachable
}

; Function Attrs: nounwind uwtable
define void @insertNodelist(ptr noundef %0, ptr noundef %1, ptr noundef %2, i32 noundef %3) #0 {
  %5 = alloca ptr, align 8
  %6 = alloca ptr, align 8
  %7 = alloca ptr, align 8
  %8 = alloca i32, align 4
  %9 = alloca i64, align 8
  %10 = alloca i32, align 4
  %11 = alloca ptr, align 8
  store ptr %0, ptr %5, align 8, !tbaa !3
  store ptr %1, ptr %6, align 8, !tbaa !9
  store ptr %2, ptr %7, align 8, !tbaa !9
  store i32 %3, ptr %8, align 4, !tbaa !11
  %12 = load ptr, ptr %5, align 8, !tbaa !3
  %13 = load ptr, ptr %6, align 8, !tbaa !9
  call void @nodelist_remove(ptr noundef %12, ptr noundef %13)
  call void @llvm.lifetime.start.p0(i64 8, ptr %9) #10
  store i64 0, ptr %9, align 8, !tbaa !7
  br label %14

14:                                               ; preds = %44, %4
  %15 = load i64, ptr %9, align 8, !tbaa !7
  %16 = load ptr, ptr %5, align 8, !tbaa !3
  %17 = call i64 @nodelist_size(ptr noundef %16)
  %18 = icmp ult i64 %15, %17
  br i1 %18, label %20, label %19

19:                                               ; preds = %14
  store i32 2, ptr %10, align 4
  br label %47

20:                                               ; preds = %14
  call void @llvm.lifetime.start.p0(i64 8, ptr %11) #10
  %21 = load ptr, ptr %5, align 8, !tbaa !3
  %22 = load i64, ptr %9, align 8, !tbaa !7
  %23 = call ptr @nodelist_get(ptr noundef %21, i64 noundef %22)
  store ptr %23, ptr %11, align 8, !tbaa !9
  %24 = load ptr, ptr %11, align 8, !tbaa !9
  %25 = load ptr, ptr %7, align 8, !tbaa !9
  %26 = icmp eq ptr %24, %25
  br i1 %26, label %27, label %40

27:                                               ; preds = %20
  %28 = load i32, ptr %8, align 4, !tbaa !11
  %29 = icmp eq i32 %28, 0
  br i1 %29, label %30, label %34

30:                                               ; preds = %27
  %31 = load ptr, ptr %5, align 8, !tbaa !3
  %32 = load i64, ptr %9, align 8, !tbaa !7
  %33 = load ptr, ptr %6, align 8, !tbaa !9
  call void @appendNodelist(ptr noundef %31, i64 noundef %32, ptr noundef %33)
  br label %39

34:                                               ; preds = %27
  %35 = load ptr, ptr %5, align 8, !tbaa !3
  %36 = load i64, ptr %9, align 8, !tbaa !7
  %37 = add i64 %36, 1
  %38 = load ptr, ptr %6, align 8, !tbaa !9
  call void @appendNodelist(ptr noundef %35, i64 noundef %37, ptr noundef %38)
  br label %39

39:                                               ; preds = %34, %30
  store i32 2, ptr %10, align 4
  br label %41

40:                                               ; preds = %20
  store i32 0, ptr %10, align 4
  br label %41

41:                                               ; preds = %40, %39
  call void @llvm.lifetime.end.p0(i64 8, ptr %11) #10
  %42 = load i32, ptr %10, align 4
  switch i32 %42, label %47 [
    i32 0, label %43
  ]

43:                                               ; preds = %41
  br label %44

44:                                               ; preds = %43
  %45 = load i64, ptr %9, align 8, !tbaa !7
  %46 = add i64 %45, 1
  store i64 %46, ptr %9, align 8, !tbaa !7
  br label %14, !llvm.loop !26

47:                                               ; preds = %41, %19
  call void @llvm.lifetime.end.p0(i64 8, ptr %9) #10
  br label %48

48:                                               ; preds = %47
  ret void
}