; Function Attrs: nounwind uwtable
define void @insertNodelist(ptr noundef captures(none) %0, ptr noundef %1, ptr noundef readnone captures(address) %2, i32 noundef %3) local_unnamed_addr #0 {
  %5 = alloca ptr, align 8
  call void @llvm.lifetime.start.p0(i64 8, ptr nonnull %5)
  store ptr %1, ptr %5, align 8, !tbaa !15
  %6 = getelementptr inbounds nuw i8, ptr %0, i64 16
  %7 = load i64, ptr %6, align 8, !tbaa !3
  %.not34.i = icmp eq i64 %7, 0
  br i1 %.not34.i, label %nodelist_remove.exit.thread, label %.lr.ph.i

nodelist_remove.exit.thread:                      ; preds = %4
  call void @llvm.lifetime.end.p0(i64 8, ptr nonnull %5)
  br label %.loopexit

.lr.ph.i:                                         ; preds = %4
  %8 = load ptr, ptr %0, align 8, !tbaa !12
  %9 = getelementptr inbounds nuw i8, ptr %0, i64 8
  %10 = load i64, ptr %9, align 8, !tbaa !11
  %11 = getelementptr inbounds nuw i8, ptr %0, i64 24
  %12 = load i64, ptr %11, align 8, !tbaa !10
  br label %13

13:                                               ; preds = %.critedge.i, %.lr.ph.i
  %.029.i = phi i64 [ 0, %.lr.ph.i ], [ %.01730.i, %.critedge.i ]
  %14 = add i64 %.029.i, %10
  %15 = urem i64 %14, %12
  %16 = getelementptr inbounds nuw ptr, ptr %8, i64 %15
  %bcmp.i = call i32 @bcmp(ptr noundef nonnull dereferenceable(8) %16, ptr noundef nonnull dereferenceable(8) %5, i64 8)
  %.not.i = icmp eq i32 %bcmp.i, 0
  %.01730.i = add i64 %.029.i, 1
  br i1 %.not.i, label %.preheader.i, label %.critedge.i

.preheader.i:                                     ; preds = %13
  %17 = icmp ult i64 %.01730.i, %7
  br i1 %17, label %.lr.ph33.i, label %nodelist_remove.exit

.lr.ph33.i:                                       ; preds = %.preheader.i, %.lr.ph33.i
  %.01732.i = phi i64 [ %.017.i, %.lr.ph33.i ], [ %.01730.i, %.preheader.i ]
  %.01831.i = phi ptr [ %20, %.lr.ph33.i ], [ %16, %.preheader.i ]
  %18 = add i64 %.01732.i, %10
  %19 = urem i64 %18, %12
  %20 = getelementptr inbounds nuw ptr, ptr %8, i64 %19
  %21 = load ptr, ptr %20, align 8, !tbaa !15
  store ptr %21, ptr %.01831.i, align 8, !tbaa !15
  %.017.i = add nuw i64 %.01732.i, 1
  %exitcond37.not.i = icmp eq i64 %.017.i, %7
  br i1 %exitcond37.not.i, label %nodelist_remove.exit, label %.lr.ph33.i, !llvm.loop !21

.critedge.i:                                      ; preds = %13
  %exitcond.not.i = icmp eq i64 %.01730.i, %7
  br i1 %exitcond.not.i, label %nodelist_remove.exit.thread28, label %13, !llvm.loop !22

nodelist_remove.exit.thread28:                    ; preds = %.critedge.i
  call void @llvm.lifetime.end.p0(i64 8, ptr nonnull %5)
  br label %.lr.ph

nodelist_remove.exit:                             ; preds = %.lr.ph33.i, %.preheader.i
  %22 = add i64 %7, -1
  store i64 %22, ptr %6, align 8, !tbaa !3
  call void @llvm.lifetime.end.p0(i64 8, ptr nonnull %5)
  %.not21 = icmp eq i64 %22, 0
  br i1 %.not21, label %.loopexit, label %.lr.ph

.lr.ph:                                           ; preds = %nodelist_remove.exit.thread28, %nodelist_remove.exit
  %.val31 = phi i64 [ %7, %nodelist_remove.exit.thread28 ], [ %22, %nodelist_remove.exit ]
  %23 = load ptr, ptr %0, align 8, !tbaa !12
  %24 = getelementptr inbounds nuw i8, ptr %0, i64 8
  %25 = load i64, ptr %24, align 8, !tbaa !11
  %26 = getelementptr inbounds nuw i8, ptr %0, i64 24
  %27 = load i64, ptr %26, align 8, !tbaa !10
  br label %28

28:                                               ; preds = %.lr.ph, %.critedge
  %.020 = phi i64 [ 0, %.lr.ph ], [ %38, %.critedge ]
  %29 = add i64 %25, %.020
  %30 = urem i64 %29, %27
  %31 = getelementptr inbounds nuw ptr, ptr %23, i64 %30
  %32 = load ptr, ptr %31, align 8, !tbaa !15
  %.not = icmp eq ptr %32, %2
  br i1 %.not, label %33, label %.critedge

33:                                               ; preds = %28
  %34 = icmp eq i32 %3, 0
  br i1 %34, label %35, label %36

35:                                               ; preds = %33
  tail call void @appendNodelist(ptr noundef nonnull %0, i64 noundef %.020, ptr noundef %1)
  br label %.loopexit

36:                                               ; preds = %33
  %37 = add nuw i64 %.020, 1
  tail call void @appendNodelist(ptr noundef nonnull %0, i64 noundef %37, ptr noundef %1)
  br label %.loopexit

.critedge:                                        ; preds = %28
  %38 = add nuw i64 %.020, 1
  %exitcond.not = icmp eq i64 %38, %.val31
  br i1 %exitcond.not, label %.loopexit, label %28, !llvm.loop !23

.loopexit:                                        ; preds = %.critedge, %nodelist_remove.exit.thread, %nodelist_remove.exit, %36, %35
  ret void
}